#include <math.h>
#include <stdio.h>
#include <stdlib.h>
#include <string.h>

int main()
{
	int i,j,n;
	char a[200][25];
	scanf("%d",&n);
	for(i=0;i<n;i++)
	{
		scanf("%s",a[i]);
	}
	int maxi=0,mini=0;
	for(i=1;i<n;i++)
	{
		if(strlen(a[i])>strlen(a[maxi]))
			maxi=i;
		else if(strlen(a[i])<strlen(a[mini]))
			mini=i;
	}
	printf("%s\n%s",a[maxi],a[mini]);
	return 0;
}